target datalayout = "e-m:e-p270:32:32-p271:32:32-p272:64:64-i64:64-i128:128-f80:128-n8:16:32:64-S128"
target triple = "x86_64-pc-linux-gnu"

@.str = private unnamed_addr constant [34 x i8] c"../openssl/crypto/bio/bio_sock2.c\00", align 1
@__func__.BIO_connect = private unnamed_addr constant [12 x i8] c"BIO_connect\00", align 1
@.str.2 = private unnamed_addr constant [21 x i8] c"calling setsockopt()\00", align 1
@.str.3 = private unnamed_addr constant [18 x i8] c"calling connect()\00", align 1

; Function Attrs: nounwind uwtable
define i32 @BIO_connect(i32 noundef %0, ptr noundef %1, i32 noundef %2) #0 {
  %4 = alloca i32, align 4
  %5 = alloca i32, align 4
  %6 = alloca ptr, align 8
  %7 = alloca i32, align 4
  %8 = alloca i32, align 4
  %9 = alloca i32, align 4
  store i32 %0, ptr %5, align 4, !tbaa !3
  store ptr %1, ptr %6, align 8, !tbaa !7
  store i32 %2, ptr %7, align 4, !tbaa !3
  call void @llvm.lifetime.start.p0(i64 4, ptr %8) #5
  store i32 1, ptr %8, align 4, !tbaa !3
  %10 = load i32, ptr %5, align 4, !tbaa !3
  %11 = icmp eq i32 %10, -1
  br i1 %11, label %12, label %13

12:                                               ; preds = %3
  call void @ERR_new()
  call void @ERR_set_debug(ptr noundef @.str, i32 noundef 86, ptr noundef @__func__.BIO_connect)
  call void (i32, i32, ptr, ...) @ERR_set_error(i32 noundef 32, i32 noundef 135, ptr noundef null)
  store i32 0, ptr %4, align 4
  store i32 1, ptr %9, align 4
  br label %67

13:                                               ; preds = %3
  %14 = load i32, ptr %5, align 4, !tbaa !3
  %15 = load i32, ptr %7, align 4, !tbaa !3
  %16 = and i32 %15, 8
  %17 = icmp ne i32 %16, 0
  %18 = zext i1 %17 to i32
  %19 = call i32 @BIO_socket_nbio(i32 noundef %14, i32 noundef %18)
  %20 = icmp ne i32 %19, 0
  br i1 %20, label %22, label %21

21:                                               ; preds = %13
  store i32 0, ptr %4, align 4
  store i32 1, ptr %9, align 4
  br label %67

22:                                               ; preds = %13
  %23 = load i32, ptr %7, align 4, !tbaa !3
  %24 = and i32 %23, 4
  %25 = icmp ne i32 %24, 0
  br i1 %25, label %26, label %34

26:                                               ; preds = %22
  %27 = load i32, ptr %5, align 4, !tbaa !3
  %28 = call i32 @setsockopt(i32 noundef %27, i32 noundef 1, i32 noundef 9, ptr noundef %8, i32 noundef 4) #5
  %29 = icmp ne i32 %28, 0
  br i1 %29, label %30, label %33

30:                                               ; preds = %26
  call void @ERR_new()
  call void @ERR_set_debug(ptr noundef @.str, i32 noundef 96, ptr noundef @__func__.BIO_connect)
  %31 = call ptr @__errno_location() #6
  %32 = load i32, ptr %31, align 4, !tbaa !3
  call void (i32, i32, ptr, ...) @ERR_set_error(i32 noundef 2, i32 noundef %32, ptr noundef @.str.2)
  call void @ERR_new()
  call void @ERR_set_debug(ptr noundef @.str, i32 noundef 98, ptr noundef @__func__.BIO_connect)
  call void (i32, i32, ptr, ...) @ERR_set_error(i32 noundef 32, i32 noundef 137, ptr noundef null)
  store i32 0, ptr %4, align 4
  store i32 1, ptr %9, align 4
  br label %67

33:                                               ; preds = %26
  br label %34

34:                                               ; preds = %33, %22
  %35 = load i32, ptr %7, align 4, !tbaa !3
  %36 = and i32 %35, 16
  %37 = icmp ne i32 %36, 0
  br i1 %37, label %38, label %46

38:                                               ; preds = %34
  %39 = load i32, ptr %5, align 4, !tbaa !3
  %40 = call i32 @setsockopt(i32 noundef %39, i32 noundef 6, i32 noundef 1, ptr noundef %8, i32 noundef 4) #5
  %41 = icmp ne i32 %40, 0
  br i1 %41, label %42, label %45

42:                                               ; preds = %38
  call void @ERR_new()
  call void @ERR_set_debug(ptr noundef @.str, i32 noundef 106, ptr noundef @__func__.BIO_connect)
  %43 = call ptr @__errno_location() #6
  %44 = load i32, ptr %43, align 4, !tbaa !3
  call void (i32, i32, ptr, ...) @ERR_set_error(i32 noundef 2, i32 noundef %44, ptr noundef @.str.2)
  call void @ERR_new()
  call void @ERR_set_debug(ptr noundef @.str, i32 noundef 108, ptr noundef @__func__.BIO_connect)
  call void (i32, i32, ptr, ...) @ERR_set_error(i32 noundef 32, i32 noundef 138, ptr noundef null)
  store i32 0, ptr %4, align 4
  store i32 1, ptr %9, align 4
  br label %67

45:                                               ; preds = %38
  br label %46

46:                                               ; preds = %45, %34
  %47 = load i32, ptr %7, align 4, !tbaa !3
  %48 = and i32 %47, 32
  %49 = icmp ne i32 %48, 0
  br i1 %49, label %50, label %51

50:                                               ; preds = %46
  br label %51

51:                                               ; preds = %50, %46
  %52 = load i32, ptr %5, align 4, !tbaa !3
  %53 = load ptr, ptr %6, align 8, !tbaa !7
  %54 = call ptr @BIO_ADDR_sockaddr(ptr noundef %53)
  %55 = load ptr, ptr %6, align 8, !tbaa !7
  %56 = call i32 @BIO_ADDR_sockaddr_size(ptr noundef %55)
  %57 = call i32 @connect(i32 noundef %52, ptr noundef %54, i32 noundef %56)
  %58 = icmp eq i32 %57, -1
  br i1 %58, label %59, label %66

59:                                               ; preds = %51
  %60 = call i32 @BIO_sock_should_retry(i32 noundef -1)
  %61 = icmp ne i32 %60, 0
  br i1 %61, label %65, label %62

62:                                               ; preds = %59
  call void @ERR_new()
  call void @ERR_set_debug(ptr noundef @.str, i32 noundef 178, ptr noundef @__func__.BIO_connect)
  %63 = call ptr @__errno_location() #6
  %64 = load i32, ptr %63, align 4, !tbaa !3
  call void (i32, i32, ptr, ...) @ERR_set_error(i32 noundef 2, i32 noundef %64, ptr noundef @.str.3)
  call void @ERR_new()
  call void @ERR_set_debug(ptr noundef @.str, i32 noundef 180, ptr noundef @__func__.BIO_connect)
  call void (i32, i32, ptr, ...) @ERR_set_error(i32 noundef 32, i32 noundef 103, ptr noundef null)
  br label %65

65:                                               ; preds = %62, %59
  store i32 0, ptr %4, align 4
  store i32 1, ptr %9, align 4
  br label %67

66:                                               ; preds = %51
  store i32 1, ptr %4, align 4
  store i32 1, ptr %9, align 4
  br label %67

67:                                               ; preds = %66, %65, %42, %30, %21, %12
  call void @llvm.lifetime.end.p0(i64 4, ptr %8) #5
  %68 = load i32, ptr %4, align 4
  ret i32 %68
}