; Function Attrs: nounwind uwtable
define range(i32 0, 2) i32 @BIO_connect(i32 noundef %0, ptr noundef %1, i32 noundef %2) local_unnamed_addr #0 {
  %4 = alloca i32, align 4
  call void @llvm.lifetime.start.p0(i64 4, ptr nonnull %4) #5
  store i32 1, ptr %4, align 4, !tbaa !3
  %5 = icmp eq i32 %0, -1
  br i1 %5, label %6, label %7

6:                                                ; preds = %3
  tail call void @ERR_new() #5
  tail call void @ERR_set_debug(ptr noundef nonnull @.str, i32 noundef 86, ptr noundef nonnull @__func__.BIO_connect) #5
  tail call void (i32, i32, ptr, ...) @ERR_set_error(i32 noundef 32, i32 noundef 135, ptr noundef null) #5
  br label %34

7:                                                ; preds = %3
  %8 = lshr i32 %2, 3
  %.lobit = and i32 %8, 1
  %9 = tail call i32 @BIO_socket_nbio(i32 noundef %0, i32 noundef %.lobit) #5
  %.not = icmp eq i32 %9, 0
  br i1 %.not, label %34, label %10

10:                                               ; preds = %7
  %11 = and i32 %2, 4
  %.not12 = icmp eq i32 %11, 0
  br i1 %.not12, label %17, label %12

12:                                               ; preds = %10
  %13 = call i32 @setsockopt(i32 noundef %0, i32 noundef 1, i32 noundef 9, ptr noundef nonnull %4, i32 noundef 4) #5
  %.not13 = icmp eq i32 %13, 0
  br i1 %.not13, label %17, label %14

14:                                               ; preds = %12
  call void @ERR_new() #5
  call void @ERR_set_debug(ptr noundef nonnull @.str, i32 noundef 96, ptr noundef nonnull @__func__.BIO_connect) #5
  %15 = tail call ptr @__errno_location() #6
  %16 = load i32, ptr %15, align 4, !tbaa !3
  call void (i32, i32, ptr, ...) @ERR_set_error(i32 noundef 2, i32 noundef %16, ptr noundef nonnull @.str.2) #5
  call void @ERR_new() #5
  call void @ERR_set_debug(ptr noundef nonnull @.str, i32 noundef 98, ptr noundef nonnull @__func__.BIO_connect) #5
  call void (i32, i32, ptr, ...) @ERR_set_error(i32 noundef 32, i32 noundef 137, ptr noundef null) #5
  br label %34

17:                                               ; preds = %12, %10
  %18 = and i32 %2, 16
  %.not14 = icmp eq i32 %18, 0
  br i1 %.not14, label %24, label %19

19:                                               ; preds = %17
  %20 = call i32 @setsockopt(i32 noundef %0, i32 noundef 6, i32 noundef 1, ptr noundef nonnull %4, i32 noundef 4) #5
  %.not15 = icmp eq i32 %20, 0
  br i1 %.not15, label %24, label %21

21:                                               ; preds = %19
  call void @ERR_new() #5
  call void @ERR_set_debug(ptr noundef nonnull @.str, i32 noundef 106, ptr noundef nonnull @__func__.BIO_connect) #5
  %22 = tail call ptr @__errno_location() #6
  %23 = load i32, ptr %22, align 4, !tbaa !3
  call void (i32, i32, ptr, ...) @ERR_set_error(i32 noundef 2, i32 noundef %23, ptr noundef nonnull @.str.2) #5
  call void @ERR_new() #5
  call void @ERR_set_debug(ptr noundef nonnull @.str, i32 noundef 108, ptr noundef nonnull @__func__.BIO_connect) #5
  call void (i32, i32, ptr, ...) @ERR_set_error(i32 noundef 32, i32 noundef 138, ptr noundef null) #5
  br label %34

24:                                               ; preds = %19, %17
  %25 = call ptr @BIO_ADDR_sockaddr(ptr noundef %1) #5
  %26 = call i32 @BIO_ADDR_sockaddr_size(ptr noundef %1) #5
  %27 = call i32 @connect(i32 noundef %0, ptr noundef %25, i32 noundef %26) #5
  %28 = icmp eq i32 %27, -1
  br i1 %28, label %29, label %34

29:                                               ; preds = %24
  %30 = call i32 @BIO_sock_should_retry(i32 noundef -1) #5
  %.not16 = icmp eq i32 %30, 0
  br i1 %.not16, label %31, label %34

31:                                               ; preds = %29
  call void @ERR_new() #5
  call void @ERR_set_debug(ptr noundef nonnull @.str, i32 noundef 178, ptr noundef nonnull @__func__.BIO_connect) #5
  %32 = tail call ptr @__errno_location() #6
  %33 = load i32, ptr %32, align 4, !tbaa !3
  call void (i32, i32, ptr, ...) @ERR_set_error(i32 noundef 2, i32 noundef %33, ptr noundef nonnull @.str.3) #5
  call void @ERR_new() #5
  call void @ERR_set_debug(ptr noundef nonnull @.str, i32 noundef 180, ptr noundef nonnull @__func__.BIO_connect) #5
  call void (i32, i32, ptr, ...) @ERR_set_error(i32 noundef 32, i32 noundef 103, ptr noundef null) #5
  br label %34

34:                                               ; preds = %24, %29, %31, %7, %21, %14, %6
  %.0 = phi i32 [ 0, %6 ], [ 0, %14 ], [ 0, %21 ], [ 0, %7 ], [ 0, %31 ], [ 0, %29 ], [ 1, %24 ]
  call void @llvm.lifetime.end.p0(i64 4, ptr nonnull %4) #5
  ret i32 %.0
}